target datalayout = "e-m:e-p270:32:32-p271:32:32-p272:64:64-i64:64-i128:128-f80:128-n8:16:32:64-S128"
target triple = "x86_64-pc-linux-gnu"

%struct.CRYPTO_REF_COUNT = type { i32 }
%struct.quic_token_st = type { %struct.CRYPTO_REF_COUNT, ptr, i64, ptr, i64 }

; Function Attrs: nounwind uwtable
define internal i32 @quic_token_cmp(ptr noundef %0, ptr noundef %1) #0 {
  %3 = alloca i32, align 4
  %4 = alloca ptr, align 8
  %5 = alloca ptr, align 8
  store ptr %0, ptr %4, align 8, !tbaa !278
  store ptr %1, ptr %5, align 8, !tbaa !278
  %6 = load ptr, ptr %4, align 8, !tbaa !278
  %7 = getelementptr inbounds nuw %struct.quic_token_st, ptr %6, i32 0, i32 2
  %8 = load i64, ptr %7, align 8, !tbaa !282
  %9 = load ptr, ptr %5, align 8, !tbaa !278
  %10 = getelementptr inbounds nuw %struct.quic_token_st, ptr %9, i32 0, i32 2
  %11 = load i64, ptr %10, align 8, !tbaa !282
  %12 = icmp ne i64 %8, %11
  br i1 %12, label %13, label %14

13:                                               ; preds = %2
  store i32 1, ptr %3, align 4
  br label %25

14:                                               ; preds = %2
  %15 = load ptr, ptr %4, align 8, !tbaa !278
  %16 = getelementptr inbounds nuw %struct.quic_token_st, ptr %15, i32 0, i32 1
  %17 = load ptr, ptr %16, align 8, !tbaa !280
  %18 = load ptr, ptr %5, align 8, !tbaa !278
  %19 = getelementptr inbounds nuw %struct.quic_token_st, ptr %18, i32 0, i32 1
  %20 = load ptr, ptr %19, align 8, !tbaa !280
  %21 = load ptr, ptr %4, align 8, !tbaa !278
  %22 = getelementptr inbounds nuw %struct.quic_token_st, ptr %21, i32 0, i32 2
  %23 = load i64, ptr %22, align 8, !tbaa !282
  %24 = call i32 @memcmp(ptr noundef %17, ptr noundef %20, i64 noundef %23) #11
  store i32 %24, ptr %3, align 4
  br label %25

25:                                               ; preds = %14, %13
  %26 = load i32, ptr %3, align 4
  ret i32 %26
}