; Function Attrs: mustprogress nofree nounwind willreturn memory(read, inaccessiblemem: none) uwtable
define internal i32 @quic_token_cmp(ptr noundef readonly captures(none) %0, ptr noundef readonly captures(none) %1) #6 {
  %3 = getelementptr inbounds nuw i8, ptr %0, i64 16
  %4 = load i64, ptr %3, align 8, !tbaa !238
  %5 = getelementptr inbounds nuw i8, ptr %1, i64 16
  %6 = load i64, ptr %5, align 8, !tbaa !238
  %.not = icmp eq i64 %4, %6
  br i1 %.not, label %7, label %13

7:                                                ; preds = %2
  %8 = getelementptr inbounds nuw i8, ptr %0, i64 8
  %9 = load ptr, ptr %8, align 8, !tbaa !236
  %10 = getelementptr inbounds nuw i8, ptr %1, i64 8
  %11 = load ptr, ptr %10, align 8, !tbaa !236
  %12 = tail call i32 @memcmp(ptr noundef %9, ptr noundef %11, i64 noundef %4) #13
  br label %13

13:                                               ; preds = %2, %7
  %.0 = phi i32 [ %12, %7 ], [ 1, %2 ]
  ret i32 %.0
}